target datalayout = "e-m:e-p270:32:32-p271:32:32-p272:64:64-i64:64-i128:128-f80:128-n8:16:32:64-S128"
target triple = "x86_64-pc-linux-gnu"

%"struct.(anonymous namespace)::CleanTest" = type { %struct.StateTestWithBuiltinRules, %struct.VirtualFileSystem, %struct.BuildConfig }
%struct.StateTestWithBuiltinRules = type { %"class.testing::Test", %struct.State }
%"class.testing::Test" = type { ptr, %"class.std::unique_ptr" }
%"class.std::unique_ptr" = type { %"struct.std::__uniq_ptr_data" }
%"struct.std::__uniq_ptr_data" = type { %"class.std::__uniq_ptr_impl" }
%"class.std::__uniq_ptr_impl" = type { %"class.std::tuple" }
%"class.std::tuple" = type { %"struct.std::_Tuple_impl" }
%"struct.std::_Tuple_impl" = type { %"struct.std::_Head_base.19" }
%"struct.std::_Head_base.19" = type { ptr }
%struct.State = type { %"class.std::unordered_map", %"class.std::map", %"class.std::vector", %struct.BindingEnv, %"class.std::vector.42" }
%"class.std::unordered_map" = type { %"class.std::_Hashtable" }
%"class.std::_Hashtable" = type { ptr, i64, %"struct.std::__detail::_Hash_node_base", i64, %"struct.std::__detail::_Prime_rehash_policy", ptr }
%"struct.std::__detail::_Hash_node_base" = type { ptr }
%"struct.std::__detail::_Prime_rehash_policy" = type { float, i64 }
%"class.std::map" = type { %"class.std::_Rb_tree" }
%"class.std::_Rb_tree" = type { %"struct.std::_Rb_tree<std::__cxx11::basic_string<char>, std::pair<const std::__cxx11::basic_string<char>, Pool *>, std::_Select1st<std::pair<const std::__cxx11::basic_string<char>, Pool *>>, std::less<std::__cxx11::basic_string<char>>>::_Rb_tree_impl" }
%"struct.std::_Rb_tree<std::__cxx11::basic_string<char>, std::pair<const std::__cxx11::basic_string<char>, Pool *>, std::_Select1st<std::pair<const std::__cxx11::basic_string<char>, Pool *>>, std::less<std::__cxx11::basic_string<char>>>::_Rb_tree_impl" = type { %"struct.std::_Rb_tree_key_compare", %"struct.std::_Rb_tree_header" }
%"struct.std::_Rb_tree_key_compare" = type { %"struct.std::less" }
%"struct.std::less" = type { i8 }
%"struct.std::_Rb_tree_header" = type { %"struct.std::_Rb_tree_node_base", i64 }
%"struct.std::_Rb_tree_node_base" = type { i32, ptr, ptr, ptr }
%"class.std::vector" = type { %"struct.std::_Vector_base" }
%"struct.std::_Vector_base" = type { %"struct.std::_Vector_base<Edge *, std::allocator<Edge *>>::_Vector_impl" }
%"struct.std::_Vector_base<Edge *, std::allocator<Edge *>>::_Vector_impl" = type { %"struct.std::_Vector_base<Edge *, std::allocator<Edge *>>::_Vector_impl_data" }
%"struct.std::_Vector_base<Edge *, std::allocator<Edge *>>::_Vector_impl_data" = type { ptr, ptr, ptr }
%struct.BindingEnv = type { %struct.Env, %"class.std::map.32", %"class.std::map.37", ptr }
%struct.Env = type { ptr }
%"class.std::map.32" = type { %"class.std::_Rb_tree.33" }
%"class.std::_Rb_tree.33" = type { %"struct.std::_Rb_tree<std::__cxx11::basic_string<char>, std::pair<const std::__cxx11::basic_string<char>, std::__cxx11::basic_string<char>>, std::_Select1st<std::pair<const std::__cxx11::basic_string<char>, std::__cxx11::basic_string<char>>>, std::less<std::__cxx11::basic_string<char>>>::_Rb_tree_impl" }
%"struct.std::_Rb_tree<std::__cxx11::basic_string<char>, std::pair<const std::__cxx11::basic_string<char>, std::__cxx11::basic_string<char>>, std::_Select1st<std::pair<const std::__cxx11::basic_string<char>, std::__cxx11::basic_string<char>>>, std::less<std::__cxx11::basic_string<char>>>::_Rb_tree_impl" = type { %"struct.std::_Rb_tree_key_compare", %"struct.std::_Rb_tree_header" }
%"class.std::map.37" = type { %"class.std::_Rb_tree.38" }
%"class.std::_Rb_tree.38" = type { %"struct.std::_Rb_tree<std::__cxx11::basic_string<char>, std::pair<const std::__cxx11::basic_string<char>, const Rule *>, std::_Select1st<std::pair<const std::__cxx11::basic_string<char>, const Rule *>>, std::less<std::__cxx11::basic_string<char>>>::_Rb_tree_impl" }
%"struct.std::_Rb_tree<std::__cxx11::basic_string<char>, std::pair<const std::__cxx11::basic_string<char>, const Rule *>, std::_Select1st<std::pair<const std::__cxx11::basic_string<char>, const Rule *>>, std::less<std::__cxx11::basic_string<char>>>::_Rb_tree_impl" = type { %"struct.std::_Rb_tree_key_compare", %"struct.std::_Rb_tree_header" }
%"class.std::vector.42" = type { %"struct.std::_Vector_base.43" }
%"struct.std::_Vector_base.43" = type { %"struct.std::_Vector_base<Node *, std::allocator<Node *>>::_Vector_impl" }
%"struct.std::_Vector_base<Node *, std::allocator<Node *>>::_Vector_impl" = type { %"struct.std::_Vector_base<Node *, std::allocator<Node *>>::_Vector_impl_data" }
%"struct.std::_Vector_base<Node *, std::allocator<Node *>>::_Vector_impl_data" = type { ptr, ptr, ptr }
%struct.VirtualFileSystem = type <{ %struct.DiskInterface, %"class.std::vector.47", %"class.std::vector.47", %"class.std::map.52", %"class.std::set", %"class.std::set", i32, [4 x i8] }>
%struct.DiskInterface = type { %struct.FileReader }
%struct.FileReader = type { ptr }
%"class.std::vector.47" = type { %"struct.std::_Vector_base.48" }
%"struct.std::_Vector_base.48" = type { %"struct.std::_Vector_base<std::__cxx11::basic_string<char>, std::allocator<std::__cxx11::basic_string<char>>>::_Vector_impl" }
%"struct.std::_Vector_base<std::__cxx11::basic_string<char>, std::allocator<std::__cxx11::basic_string<char>>>::_Vector_impl" = type { %"struct.std::_Vector_base<std::__cxx11::basic_string<char>, std::allocator<std::__cxx11::basic_string<char>>>::_Vector_impl_data" }
%"struct.std::_Vector_base<std::__cxx11::basic_string<char>, std::allocator<std::__cxx11::basic_string<char>>>::_Vector_impl_data" = type { ptr, ptr, ptr }
%"class.std::map.52" = type { %"class.std::_Rb_tree.53" }
%"class.std::_Rb_tree.53" = type { %"struct.std::_Rb_tree<std::__cxx11::basic_string<char>, std::pair<const std::__cxx11::basic_string<char>, VirtualFileSystem::Entry>, std::_Select1st<std::pair<const std::__cxx11::basic_string<char>, VirtualFileSystem::Entry>>, std::less<std::__cxx11::basic_string<char>>>::_Rb_tree_impl" }
%"struct.std::_Rb_tree<std::__cxx11::basic_string<char>, std::pair<const std::__cxx11::basic_string<char>, VirtualFileSystem::Entry>, std::_Select1st<std::pair<const std::__cxx11::basic_string<char>, VirtualFileSystem::Entry>>, std::less<std::__cxx11::basic_string<char>>>::_Rb_tree_impl" = type { %"struct.std::_Rb_tree_key_compare", %"struct.std::_Rb_tree_header" }
%"class.std::set" = type { %"class.std::_Rb_tree.57" }
%"class.std::_Rb_tree.57" = type { %"struct.std::_Rb_tree<std::__cxx11::basic_string<char>, std::__cxx11::basic_string<char>, std::_Identity<std::__cxx11::basic_string<char>>, std::less<std::__cxx11::basic_string<char>>>::_Rb_tree_impl" }
%"struct.std::_Rb_tree<std::__cxx11::basic_string<char>, std::__cxx11::basic_string<char>, std::_Identity<std::__cxx11::basic_string<char>>, std::less<std::__cxx11::basic_string<char>>>::_Rb_tree_impl" = type { %"struct.std::_Rb_tree_key_compare", %"struct.std::_Rb_tree_header" }
%struct.BuildConfig = type <{ i32, i8, [3 x i8], i32, i32, double, %struct.DepfileParserOptions, [7 x i8] }>
%struct.DepfileParserOptions = type { i8 }

; Function Attrs: mustprogress nounwind uwtable
define linkonce_odr dso_local void @_ZN25StateTestWithBuiltinRulesD2Ev(ptr noundef nonnull align 8 dereferenceable(280) %0) unnamed_addr #5 comdat align 2 {
  %2 = alloca ptr, align 8
  store ptr %0, ptr %2, align 8
  %3 = load ptr, ptr %2, align 8
  store ptr getelementptr inbounds ({ [8 x ptr] }, ptr @_ZTV25StateTestWithBuiltinRules, i32 0, i32 0, i32 2), ptr %3, align 8
  %4 = getelementptr inbounds %struct.StateTestWithBuiltinRules, ptr %3, i32 0, i32 1
  call void @_ZN5StateD2Ev(ptr noundef nonnull align 8 dereferenceable(264) %4) #3
  call void @_ZN7testing4TestD2Ev(ptr noundef nonnull align 8 dereferenceable(16) %3) #3
  ret void
}

; Function Attrs: mustprogress nounwind uwtable
define internal void @_ZN12_GLOBAL__N_19CleanTestD2Ev(ptr noundef nonnull align 8 dereferenceable(520) %0) unnamed_addr #5 align 2 {
  %2 = alloca ptr, align 8
  store ptr %0, ptr %2, align 8
  %3 = load ptr, ptr %2, align 8
  store ptr getelementptr inbounds ({ [8 x ptr] }, ptr @_ZTVN12_GLOBAL__N_19CleanTestE, i32 0, i32 0, i32 2), ptr %3, align 8
  %4 = getelementptr inbounds %"struct.(anonymous namespace)::CleanTest", ptr %3, i32 0, i32 1
  call void @_ZN17VirtualFileSystemD2Ev(ptr noundef nonnull align 8 dereferenceable(204) %4) #3
  call void @_ZN25StateTestWithBuiltinRulesD2Ev(ptr noundef nonnull align 8 dereferenceable(280) %3) #3
  ret void
}

; Function Attrs: mustprogress nounwind uwtable
define internal void @_ZN12_GLOBAL__N_123CleanTest_CleanAll_TestD2Ev(ptr noundef nonnull align 8 dereferenceable(520) %0) unnamed_addr #5 align 2 {
  %2 = alloca ptr, align 8
  store ptr %0, ptr %2, align 8
  %3 = load ptr, ptr %2, align 8
  call void @_ZN12_GLOBAL__N_19CleanTestD2Ev(ptr noundef nonnull align 8 dereferenceable(520) %3) #3
  ret void
}

; Function Attrs: mustprogress nounwind uwtable
define internal void @_ZN12_GLOBAL__N_123CleanTest_CleanAll_TestD0Ev(ptr noundef nonnull align 8 dereferenceable(520) %0) unnamed_addr #5 align 2 {
  %2 = alloca ptr, align 8
  store ptr %0, ptr %2, align 8
  %3 = load ptr, ptr %2, align 8
  call void @_ZN12_GLOBAL__N_123CleanTest_CleanAll_TestD2Ev(ptr noundef nonnull align 8 dereferenceable(520) %3) #3
  call void @_ZdlPv(ptr noundef %3) #13
  ret void
}